target datalayout = "e-m:e-p270:32:32-p271:32:32-p272:64:64-i64:64-i128:128-f80:128-n8:16:32:64-S128"
target triple = "x86_64-pc-linux-gnu"

%"class.tev::ThreadPool" = type { ptr, i64, %"class.std::__1::vector", %"class.std::__1::priority_queue", %"class.std::__1::mutex", %"class.std::__1::condition_variable", %"struct.std::__1::atomic", %"class.std::__1::mutex", %"class.std::__1::condition_variable" }
%"class.std::__1::vector" = type { ptr, ptr, %"class.std::__1::__compressed_pair" }
%"class.std::__1::__compressed_pair" = type { %"struct.std::__1::__compressed_pair_elem" }
%"struct.std::__1::__compressed_pair_elem" = type { ptr }
%"class.std::__1::priority_queue" = type <{ %"class.std::__1::vector.1", %"struct.tev::ThreadPool::QueuedTask::Comparator", [7 x i8] }>
%"class.std::__1::vector.1" = type { ptr, ptr, %"class.std::__1::__compressed_pair.2" }
%"class.std::__1::__compressed_pair.2" = type { %"struct.std::__1::__compressed_pair_elem.3" }
%"struct.std::__1::__compressed_pair_elem.3" = type { ptr }
%"struct.tev::ThreadPool::QueuedTask::Comparator" = type { i8 }
%"struct.std::__1::atomic" = type { %"struct.std::__1::__atomic_base" }
%"struct.std::__1::__atomic_base" = type { %"struct.std::__1::__atomic_base.8" }
%"struct.std::__1::__atomic_base.8" = type { %"struct.std::__1::__cxx_atomic_impl" }
%"struct.std::__1::__cxx_atomic_impl" = type { %"struct.std::__1::__cxx_atomic_base_impl" }
%"struct.std::__1::__cxx_atomic_base_impl" = type { i64 }
%"class.std::__1::mutex" = type { %union.pthread_mutex_t }
%union.pthread_mutex_t = type { %struct.__pthread_mutex_s }
%struct.__pthread_mutex_s = type { i32, i32, i32, i32, i32, i16, i16, %struct.__pthread_internal_list }
%struct.__pthread_internal_list = type { ptr, ptr }
%"class.std::__1::condition_variable" = type { %union.pthread_cond_t }
%union.pthread_cond_t = type { %struct.__pthread_cond_s }
%struct.__pthread_cond_s = type { %union.__atomic_wide_counter, %union.__atomic_wide_counter, [2 x i32], [2 x i32], i32, i32, [2 x i32] }
%union.__atomic_wide_counter = type { i64 }
%"class.std::__1::unique_lock" = type <{ ptr, i8, [7 x i8] }>
%"class.std::__1::chrono::duration" = type { i64 }

; Function Attrs: mustprogress nounwind uwtable
define linkonce_odr hidden noundef i64 @_ZNSt3__117__cxx_atomic_loadB8ne190000ImEET_PKNS_22__cxx_atomic_base_implIS1_EENS_12memory_orderE(ptr noundef %0, i32 noundef %1) #1 comdat {
  %3 = alloca ptr, align 8
  %4 = alloca i32, align 4
  %5 = alloca i64, align 8
  store ptr %0, ptr %3, align 8
  store i32 %1, ptr %4, align 4
  %6 = load ptr, ptr %3, align 8
  %7 = getelementptr inbounds %"struct.std::__1::__cxx_atomic_base_impl", ptr %6, i32 0, i32 0
  %8 = load i32, ptr %4, align 4
  switch i32 %8, label %9 [
    i32 1, label %11
    i32 2, label %11
    i32 5, label %13
  ]

9:                                                ; preds = %2
  %10 = load atomic i64, ptr %7 monotonic, align 8
  store i64 %10, ptr %5, align 8
  br label %15

11:                                               ; preds = %2, %2
  %12 = load atomic i64, ptr %7 acquire, align 8
  store i64 %12, ptr %5, align 8
  br label %15

13:                                               ; preds = %2
  %14 = load atomic i64, ptr %7 seq_cst, align 8
  store i64 %14, ptr %5, align 8
  br label %15

15:                                               ; preds = %13, %11, %9
  %16 = load i64, ptr %5, align 8
  ret i64 %16
}

; Function Attrs: mustprogress nounwind uwtable
define linkonce_odr hidden noundef i64 @_ZNKSt3__113__atomic_baseImLb0EE4loadB8ne190000ENS_12memory_orderE(ptr noundef nonnull align 8 dereferenceable(8) %0, i32 noundef %1) #1 comdat align 2 {
  %3 = alloca ptr, align 8
  %4 = alloca i32, align 4
  store ptr %0, ptr %3, align 8
  store i32 %1, ptr %4, align 4
  %5 = load ptr, ptr %3, align 8
  %6 = getelementptr inbounds %"struct.std::__1::__atomic_base.8", ptr %5, i32 0, i32 0
  %7 = load i32, ptr %4, align 4
  %8 = call noundef i64 @_ZNSt3__117__cxx_atomic_loadB8ne190000ImEET_PKNS_22__cxx_atomic_base_implIS1_EENS_12memory_orderE(ptr noundef %6, i32 noundef %7) #13
  ret i64 %8
}

; Function Attrs: mustprogress nounwind uwtable
define linkonce_odr hidden void @_ZNSt3__111unique_lockINS_5mutexEED2B8ne190000Ev(ptr noundef nonnull align 8 dereferenceable(9) %0) unnamed_addr #1 comdat align 2 {
  %2 = alloca ptr, align 8
  store ptr %0, ptr %2, align 8
  %3 = load ptr, ptr %2, align 8
  %4 = getelementptr inbounds %"class.std::__1::unique_lock", ptr %3, i32 0, i32 1
  %5 = load i8, ptr %4, align 8
  %6 = trunc i8 %5 to i1
  br i1 %6, label %7, label %10

7:                                                ; preds = %1
  %8 = getelementptr inbounds %"class.std::__1::unique_lock", ptr %3, i32 0, i32 0
  %9 = load ptr, ptr %8, align 8
  call void @_ZNSt3__15mutex6unlockEv(ptr noundef nonnull align 8 dereferenceable(40) %9) #13
  br label %10

10:                                               ; preds = %7, %1
  ret void
}

; Function Attrs: mustprogress nounwind uwtable
define linkonce_odr hidden noundef i64 @_ZNKSt3__113__atomic_baseImLb0EEcvmB8ne190000Ev(ptr noundef nonnull align 8 dereferenceable(8) %0) #1 comdat align 2 {
  %2 = alloca ptr, align 8
  store ptr %0, ptr %2, align 8
  %3 = load ptr, ptr %2, align 8
  %4 = call noundef i64 @_ZNKSt3__113__atomic_baseImLb0EE4loadB8ne190000ENS_12memory_orderE(ptr noundef nonnull align 8 dereferenceable(8) %3, i32 noundef 5) #13
  ret i64 %4
}

; Function Attrs: mustprogress uwtable
define linkonce_odr hidden void @_ZNSt3__111unique_lockINS_5mutexEEC2B8ne190000ERS1_(ptr noundef nonnull align 8 dereferenceable(9) %0, ptr noundef nonnull align 8 dereferenceable(40) %1) unnamed_addr #4 comdat align 2 {
  %3 = alloca ptr, align 8
  %4 = alloca ptr, align 8
  store ptr %0, ptr %3, align 8
  store ptr %1, ptr %4, align 8
  %5 = load ptr, ptr %3, align 8
  %6 = getelementptr inbounds %"class.std::__1::unique_lock", ptr %5, i32 0, i32 0
  %7 = load ptr, ptr %4, align 8
  store ptr %7, ptr %6, align 8
  %8 = getelementptr inbounds %"class.std::__1::unique_lock", ptr %5, i32 0, i32 1
  store i8 1, ptr %8, align 8
  %9 = getelementptr inbounds %"class.std::__1::unique_lock", ptr %5, i32 0, i32 0
  %10 = load ptr, ptr %9, align 8
  call void @_ZNSt3__15mutex4lockEv(ptr noundef nonnull align 8 dereferenceable(40) %10)
  ret void
}

; Function Attrs: mustprogress uwtable
define dso_local void @_ZN3tev10ThreadPool20waitUntilFinishedForENSt3__16chrono8durationIxNS1_5ratioILl1ELl1000000EEEEE(ptr noundef nonnull align 8 dereferenceable(256) %0, i64 %1) #4 align 2 personality ptr @__gxx_personality_v0 {
  %3 = alloca %"class.std::__1::chrono::duration", align 8
  %4 = alloca ptr, align 8
  %5 = alloca %"class.std::__1::unique_lock", align 8
  %6 = alloca i32, align 4
  %7 = alloca ptr, align 8
  %8 = alloca i32, align 4
  %9 = getelementptr inbounds %"class.std::__1::chrono::duration", ptr %3, i32 0, i32 0
  store i64 %1, ptr %9, align 8
  store ptr %0, ptr %4, align 8
  %10 = load ptr, ptr %4, align 8
  %11 = getelementptr inbounds %"class.tev::ThreadPool", ptr %10, i32 0, i32 7
  call void @_ZNSt3__111unique_lockINS_5mutexEEC2B8ne190000ERS1_(ptr noundef nonnull align 8 dereferenceable(9) %5, ptr noundef nonnull align 8 dereferenceable(40) %11)
  %12 = getelementptr inbounds %"class.tev::ThreadPool", ptr %10, i32 0, i32 6
  %13 = call noundef i64 @_ZNKSt3__113__atomic_baseImLb0EEcvmB8ne190000Ev(ptr noundef nonnull align 8 dereferenceable(8) %12) #13
  %14 = icmp eq i64 %13, 0
  br i1 %14, label %15, label %16

15:                                               ; preds = %2
  store i32 1, ptr %6, align 4
  br label %20

16:                                               ; preds = %2
  %17 = getelementptr inbounds %"class.tev::ThreadPool", ptr %10, i32 0, i32 8
  %18 = invoke noundef i32 @_ZNSt3__118condition_variable8wait_forIxNS_5ratioILl1ELl1000000EEEEENS_9cv_statusERNS_11unique_lockINS_5mutexEEERKNS_6chrono8durationIT_T0_EE(ptr noundef nonnull align 8 dereferenceable(48) %17, ptr noundef nonnull align 8 dereferenceable(9) %5, ptr noundef nonnull align 8 dereferenceable(8) %3)
          to label %19 unwind label %23

19:                                               ; preds = %16
  store i32 0, ptr %6, align 4
  br label %20

20:                                               ; preds = %19, %15
  call void @_ZNSt3__111unique_lockINS_5mutexEED2B8ne190000Ev(ptr noundef nonnull align 8 dereferenceable(9) %5) #13
  %21 = load i32, ptr %6, align 4
  switch i32 %21, label %32 [
    i32 0, label %22
    i32 1, label %22
  ]

22:                                               ; preds = %20, %20
  ret void

23:                                               ; preds = %16
  %24 = landingpad { ptr, i32 }
          cleanup
  %25 = extractvalue { ptr, i32 } %24, 0
  store ptr %25, ptr %7, align 8
  %26 = extractvalue { ptr, i32 } %24, 1
  store i32 %26, ptr %8, align 4
  call void @_ZNSt3__111unique_lockINS_5mutexEED2B8ne190000Ev(ptr noundef nonnull align 8 dereferenceable(9) %5) #13
  br label %27

27:                                               ; preds = %23
  %28 = load ptr, ptr %7, align 8
  %29 = load i32, ptr %8, align 4
  %30 = insertvalue { ptr, i32 } poison, ptr %28, 0
  %31 = insertvalue { ptr, i32 } %30, i32 %29, 1
  resume { ptr, i32 } %31

32:                                               ; preds = %20
  unreachable
}