; Function Attrs: mustprogress uwtable
define dso_local void @_ZN3tev10ThreadPool20waitUntilFinishedForENSt3__16chrono8durationIxNS1_5ratioILl1ELl1000000EEEEE(ptr noundef nonnull align 8 dereferenceable(256) %0, i64 %1) local_unnamed_addr #1 align 2 personality ptr @__gxx_personality_v0 {
  %3 = alloca %"class.std::__1::chrono::duration", align 8
  %4 = alloca %"class.std::__1::unique_lock", align 8
  store i64 %1, ptr %3, align 8
  %5 = getelementptr inbounds i8, ptr %0, i64 168
  store ptr %5, ptr %4, align 8
  %6 = getelementptr inbounds i8, ptr %4, i64 8
  store i8 1, ptr %6, align 8
  tail call void @_ZNSt3__15mutex4lockEv(ptr noundef nonnull align 8 dereferenceable(40) %5)
  %7 = getelementptr inbounds i8, ptr %0, i64 160
  %8 = load atomic i64, ptr %7 seq_cst, align 8
  %9 = icmp eq i64 %8, 0
  br i1 %9, label %13, label %10

10:                                               ; preds = %2
  %11 = getelementptr inbounds i8, ptr %0, i64 208
  %12 = invoke noundef i32 @_ZNSt3__118condition_variable8wait_forIxNS_5ratioILl1ELl1000000EEEEENS_9cv_statusERNS_11unique_lockINS_5mutexEEERKNS_6chrono8durationIT_T0_EE(ptr noundef nonnull align 8 dereferenceable(48) %11, ptr noundef nonnull align 8 dereferenceable(9) %4, ptr noundef nonnull align 8 dereferenceable(8) %3)
          to label %13 unwind label %18

13:                                               ; preds = %10, %2
  %14 = load i8, ptr %6, align 8
  %15 = and i8 %14, 1
  %.not.i = icmp eq i8 %15, 0
  br i1 %.not.i, label %_ZNSt3__111unique_lockINS_5mutexEED2B8ne190000Ev.exit, label %16

16:                                               ; preds = %13
  %17 = load ptr, ptr %4, align 8
  call void @_ZNSt3__15mutex6unlockEv(ptr noundef nonnull align 8 dereferenceable(40) %17) #13
  br label %_ZNSt3__111unique_lockINS_5mutexEED2B8ne190000Ev.exit

_ZNSt3__111unique_lockINS_5mutexEED2B8ne190000Ev.exit: ; preds = %13, %16
  ret void

18:                                               ; preds = %10
  %19 = landingpad { ptr, i32 }
          cleanup
  %20 = load i8, ptr %6, align 8
  %21 = and i8 %20, 1
  %.not.i2 = icmp eq i8 %21, 0
  br i1 %.not.i2, label %_ZNSt3__111unique_lockINS_5mutexEED2B8ne190000Ev.exit3, label %22

22:                                               ; preds = %18
  %23 = load ptr, ptr %4, align 8
  call void @_ZNSt3__15mutex6unlockEv(ptr noundef nonnull align 8 dereferenceable(40) %23) #13
  br label %_ZNSt3__111unique_lockINS_5mutexEED2B8ne190000Ev.exit3

_ZNSt3__111unique_lockINS_5mutexEED2B8ne190000Ev.exit3: ; preds = %18, %22
  resume { ptr, i32 } %19
}